ccopy_reg
_reconstructor
p0
(cdigits.dataset.images.classification.job
ImageClassificationDatasetJob
p1
c__builtin__
object
p2
Ntp3
Rp4
(dp5
S'username'
p6
Vmikemendelson
p7
sS'_notes'
p8
NsS'tasks'
p9
(lp10
g0
(cdigits.dataset.tasks.parse_folder
ParseFolderTask
p11
g2
Ntp12
Rp13
(dp14
S'train_count'
p15
I16
sS'percent_test'
p16
F0.0
sS'labels_file'
p17
S'labels.txt'
p18
sS'percent_val'
p19
F0.0
sS'val_file'
p20
S'val.txt'
p21
sS'pickver_task_parsefolder'
p22
I1
sS'test_count'
p23
I0
sS'max_per_category'
p24
NsS'pickver_task'
p25
I1
sS'exception'
p26
NsS'current_resources'
p27
NsS'job_id'
p28
S'20171102-180326-8901'
p29
sS'train_file'
p30
S'train.txt'
p31
sS'traceback'
p32
NsS'label_count'
p33
I2
sS'job_dir'
p34
S'/dli/data/digits/20171102-180326-8901'
p35
sS'parents'
p36
NsS'progress'
p37
F1.0
sS'folder'
p38
V/data/BeagleImages
p39
sS'min_per_category'
p40
I2
sS'val_count'
p41
I0
sS'status_history'
p42
(lp43
((idigits.status
Status
p44
S'I'
p46
bF1509645806.248516
tp47
a((idigits.status
Status
p48
S'R'
p49
bF1509645807.851306
tp50
a((idigits.status
Status
p51
S'D'
p52
bF1509645809.48479
tp53
asbag0
(cdigits.dataset.tasks.create_db
CreateDbTask
p54
g2
Ntp55
Rp56
(dp57
g17
g18
sg32
NsS'shuffle'
p58
I01
sS'pickver_task_createdb'
p59
I3
sS'encoding'
p60
Vpng
p61
sS'image_dims'
p62
(I256
I256
I3
tp63
sS'resize_mode'
p64
Vsquash
p65
sS'mean_file'
p66
S'mean.binaryproto'
p67
sS'db_name'
p68
S'train_db'
p69
sS'create_db_log_file'
p70
S'create_train_db.log'
p71
sS'entries_count'
p72
I16
sg25
I1
sS'distribution'
p73
(dp74
V1
p75
(dp76
S'count'
p77
I8
sS'error_count'
p78
I0
ssV0
p79
(dp80
g77
I8
sg78
I0
sssS'image_folder'
p81
NsS'backend'
p82
Vlmdb
p83
sS'_labels'
p84
(lp85
S'Louie'
p86
aS'Not Louie'
p87
asg26
Nsg27
NsS'compression'
p88
S'none'
p89
sS'input_file'
p90
g31
sg28
S'20171102-180326-8901'
p91
sg34
g35
sg36
(lp92
g13
asS'image_channel_order'
p93
S'BGR'
p94
sg37
F1.0
sg42
(lp95
((idigits.status
Status
p96
g46
bF1509645806.248601
tp97
a((idigits.status
Status
p98
g49
bF1509645809.533437
tp99
a((idigits.status
Status
p100
g52
bF1509645811.671427
tp101
asS'entries_error'
p102
Nsbasg17
g18
sg62
g63
sg64
g65
sS'pickver_job'
p103
I2
sS'pickver_job_dataset_image'
p104
I1
sg26
NsS'group'
p105
V
p106
sS'pickver_job_dataset_image_classification'
p107
I2
sS'persistent'
p108
I01
sS'_name'
p109
VImages of Beagles
p110
sS'form_data'
p111
(dp112
S'form.textfile_local_train_images.data'
p113
g106
sS'form.resize_height.data'
p114
I256
sS'form.folder_train.data'
p115
g39
sS'form.folder_val_max_per_class.data'
p116
NsS'form.folder_train_min_per_class.data'
p117
I2
sS'form.textfile_val_folder.data'
p118
g106
sS'form.backend.data'
p119
g83
sS'form.method.data'
p120
Vfolder
p121
sS'form.encoding.data'
p122
g61
sS'form.folder_test_max_per_class.data'
p123
NsS'form.textfile_local_labels_file.data'
p124
g106
sS'form.compression.data'
p125
g89
sS'form.folder_val.data'
p126
g106
sS'form.textfile_use_test.data'
p127
I00
sS'form.folder_val_min_per_class.data'
p128
I2
sS'form.has_val_folder.data'
p129
I00
sS'form.dataset_name.data'
p130
g110
sS'form.textfile_shuffle.data'
p131
I1
sS'form.textfile_local_val_images.data'
p132
g106
sS'form.textfile_use_local_files.data'
p133
I00
sS'form.resize_width.data'
p134
I256
sS'form.textfile_train_folder.data'
p135
g106
sS'form.group_name.data'
p136
g106
sS'form.folder_train_max_per_class.data'
p137
NsS'form.folder_test.data'
p138
g106
sS'form.folder_test_min_per_class.data'
p139
I2
sS'form.folder_pct_val.data'
p140
I0
sS'form.resize_mode.data'
p141
g65
sS'form.resize_channels.data'
p142
V3
p143
sS'form.textfile_test_folder.data'
p144
g106
sS'form.folder_pct_test.data'
p145
I0
sS'form.has_test_folder.data'
p146
I00
sS'form.textfile_use_val.data'
p147
I01
sS'form.textfile_local_test_images.data'
p148
g106
ssg37
F1.0
sS'_id'
p149
S'20171102-180326-8901'
p150
sS'pickver_job_dataset'
p151
I1
sg42
(lp152
((idigits.status
Status
p153
g46
bF1509645806.248279
tp154
a((idigits.status
Status
p155
g49
bF1509645807.583537
tp156
a((idigits.status
Status
p157
g52
bF1509645811.948712
tp158
asb.